(dp0
S'office'
p1
I15
sS'is'
p2
I10
sS'moved'
p3
I2
sS'back'
p4
I12
sS'<pad>'
p5
I0
sS'jupiter'
p6
I25
sS'bedroom'
p7
I18
sS'earth'
p8
I22
sS'time3'
p9
S'time3'
p10
sS'bathroom'
p11
I5
sS'time8'
p12
S'time8'
p13
sS'time9'
p14
S'time9'
p15
sS'time4'
p16
S'time4'
p17
sS'time5'
p18
S'time5'
p19
sS'time6'
p20
S'time6'
p21
sS'time7'
p22
S'time7'
p23
sS'time1'
p24
S'time1'
p25
sS'time2'
p26
S'time2'
p27
sS'moon'
p28
I21
sS'to'
p29
I3
sS'daniel'
p30
I11
sS'mars'
p31
I23
sS'travelled'
p32
I17
sS'john'
p33
I6
sS'mary'
p34
I1
sS'hallway'
p35
I8
sS'garden'
p36
I14
sS'time10'
p37
S'time10'
p38
sS'venus'
p39
I24
sS'sandra'
p40
I13
sS'the'
p41
I4
sS'kitchen'
p42
I19
sS'journeyed'
p43
I16
sS'neptune'
p44
I20
sS'went'
p45
I7
sS'where'
p46
I9
s.