(dp0
S'office'
p1
I15
sS'is'
p2
I10
sS'moved'
p3
I2
sS'back'
p4
I12
sS'jupiter'
p5
I25
sS'bedroom'
p6
I18
sS'earth'
p7
I22
sS'bathroom'
p8
I5
sS'moon'
p9
I21
sS'to'
p10
I3
sS'daniel'
p11
I11
sS'mars'
p12
I23
sS'travelled'
p13
I17
sS'john'
p14
I6
sS'mary'
p15
I1
sS'hallway'
p16
I8
sS'garden'
p17
I14
sS'venus'
p18
I24
sS'sandra'
p19
I13
sS'the'
p20
I4
sS'kitchen'
p21
I19
sS'journeyed'
p22
I16
sS'neptune'
p23
I20
sS'went'
p24
I7
sS'where'
p25
I9
s.